(dp1
S'output'
p2
S'missing "pass" in view'
p3
sS'layer'
p4
S'ParserContainer'
p5
sS'code'
p6
S'response.write(\'<!DOCTYPE html>\\n<!--[if (gt IE 9)|!(IE)]><!--> <html class="no-js" lang="\', escape=False)\nresponse.write(T.accepted_language or \'en\')\nresponse.write(\'"> <!--<![endif]-->\\n  <head>\\n    <meta charset="utf-8">\\n    <!-- www.phpied.com/conditional-comments-block-downloads/ -->\\n    <!-- Always force latest IE rendering engine\\n         (even in intranet) & Chrome Frame\\n         Remove this if you use the .htaccess -->\\n    <meta http-equiv="X-UA-Compatible" content="IE=edge\', escape=False)\nresponse.write(not request.is_local and \',chrome=1\' or \'\')\nresponse.write(\'">\\n    <!--  Mobile Viewport Fix\\n          j.mp/mobileviewport & davidbcalhoun.com/2010/viewport-metatag\\n          device-width: Occupy full width of the screen in its current orientation\\n          initial-scale = 1.0 retains dimensions instead of zooming out if page height > device height\\n          user-scalable = yes allows the user to zoom in -->\\n    <meta name="viewport" content="width=device-width, initial-scale=1.0">\\n    <title>\', escape=False)\nresponse.write(response.title or request.application)\nresponse.write(\'</title>\\n    <!-- http://dev.w3.org/html5/markup/meta.name.html -->\\n    <meta name="application-name" content="\', escape=False)\nresponse.write(request.application)\nresponse.write(\'">\\n    <!-- Speaking of Google, don\\\'t forget to set your site up:\\n         http://google.com/webmasters -->\\n    <meta name="google-site-verification" content="">\\n    <!-- include stylesheets -->\\n    <link rel="stylesheet" href="\', escape=False)\nresponse.write(URL(\'static\',\'css/bootstrap.min.css\'))\nresponse.write(\'"/>\\n    <link rel="stylesheet" href="\', escape=False)\nresponse.write(URL(\'static\',\'css/web2py-bootstrap3.css\'))\nresponse.write(\'"/>\\n    <link rel="shortcut icon" href="\', escape=False)\nresponse.write(URL(\'static\',\'images/favicon.ico\'))\nresponse.write(\'" type="image/x-icon">\\n    <link rel="apple-touch-icon" href="\', escape=False)\nresponse.write(URL(\'static\',\'images/favicon.png\'))\nresponse.write(\'">\\n    <!-- All JavaScript at the bottom, except for Modernizr which enables\\n         HTML5 elements & feature detects -->\\n    <script src="\', escape=False)\nresponse.write(URL(\'static\',\'js/modernizr-2.8.3.min.js\'))\nresponse.write(\'"></script>\\n    <!--[if lt IE 9]>\\n        <script src="\', escape=False)\nresponse.write(URL(\'static\',\'js/respond-1.4.2.min.js\'))\nresponse.write(\'"></script>\\n        <![endif]-->\\n    <!-- Favicons -->\\n    \', escape=False)\nresponse.write(\'<script type="text/javascript"><!--\\n    // These variables are used by the web2py_ajax_init function in web2py_ajax.js (which is loaded below).\\n    var w2p_ajax_confirm_message = "\', escape=False)\nresponse.write(T(\'Are you sure you want to delete this object?\'))\nresponse.write(\'";\\n    var w2p_ajax_disable_with_message = "\', escape=False)\nresponse.write(T(\'Working...\'))\nresponse.write(\'";\\n    var w2p_ajax_date_format = "\', escape=False)\nresponse.write(T(\'%Y-%m-%d\'))\nresponse.write(\'";\\n    var w2p_ajax_datetime_format = "\', escape=False)\nresponse.write(T(\'%Y-%m-%d %H:%M:%S\'))\nresponse.write(\'";\\n    var ajax_error_500 = \\\'\', escape=False)\nresponse.write(T.M(\'An error occured, please [[reload %s]] the page\') % URL(args=request.args, vars=request.get_vars))\nresponse.write("\'\\n    //--></script>\\n", escape=False)\nresponse.files.insert(0,URL(\'static\',\'js/jquery.js\'))\nresponse.files.insert(1,URL(\'static\',\'css/calendar.css\'))\nresponse.files.insert(2,URL(\'static\',\'js/calendar.js\'))\nresponse.files.insert(3,URL(\'static\',\'js/web2py.js\'))\nresponse.include_meta()\nresponse.include_files()\nresponse.write(\'\\n\', escape=False)\nresponse.write(\' <!-- this includes jquery.js, calendar.js/.css and web2py.js -->\\n    \', escape=False)\nresponse.write(\'\\n    \', escape=False)\n# using sidebars need to know what sidebar you want to use\nmc0 = \'col-md-12\'\nmc1 = \'col-md-9\'\nmc2 = \'col-md-6\'\nleft_sidebar_enabled = globals().get(\'left_sidebar_enabled\', False)\nright_sidebar_enabled = globals().get(\'right_sidebar_enabled\', False)\nmiddle_column = {0: mc0, 1: mc1, 2: mc2}[\n(left_sidebar_enabled and 1 or 0)+(right_sidebar_enabled and 1 or 0)]\nresponse.write(\'\\n  </head>\\n  <body>\\n    <!--[if lt IE 8]><p class="browserupgrade">You are using an <strong>outdated</strong> browser. Please <a href="http://browsehappy.com/">upgrade your browser</a> to improve your experience.</p><![endif]-->\\n    <div class="w2p_flash alert alert-dismissable">\', escape=False)\nresponse.write(response.flash or \'\')\nresponse.write(\'</div>\\n    <!-- Navbar ======================================= -->\\n    <nav class="navbar navbar-default navbar-fixed-top navbarpranav" role="navigation">\\n      <div class="container-fluid">\\n        <div class="navbar-header">\\n          <button type="button" class="navbar-toggle" data-toggle="collapse" data-target=".navbar-collapse">\\n            <span class="sr-only">Toggle navigation</span>\\n            <span class="icon-bar"></span>\\n            <span class="icon-bar"></span>\\n            <span class="icon-bar"></span>\\n          </button>\\n          \', escape=False)\nresponse.write(response.logo or \'\')\nresponse.write(\'\\n        </div>\\n        <div class="collapse navbar-collapse navbar-ex1-collapse">\\n          <ul class="nav navbar-nav navbar-right">\\n            \', escape=False)\nresponse.write(\'auth\' in globals() and auth.navbar(\'Welcome\',mode=\'dropdown\') or \'\')\nresponse.write(\'\\n          </ul>\\n          \', escape=False)\nif response.menu:\n    response.write(\'\\n          \', escape=False)\n    response.write(MENU(response.menu, _class=\'nav navbar-nav\',li_class=\'dropdown\',ul_class=\'dropdown-menu\'))\n    response.write(\'\\n          \', escape=False)\n    pass\nresponse.write(\'\\n        </div>\\n      </div>\\n    </nav>\\n    <!-- Masthead ===================================== -->    \\n    \', escape=False)\nresponse.write(\'\\n    \', escape=False)\nresponse.write(\'\\n    <!-- Main ========================================= -->\\n    <!-- Begin page content -->\\n    <div class="container-fluid main-container">\\n      \', escape=False)\nif left_sidebar_enabled:\n    response.write(\'\\n        <div class="col-md-3 left-sidebar">\\n            \', escape=False)\n    response.write(\'\\n            <h3>Left Sidebar</h3>\\n            <p></p>\\n            \', escape=False)\n    response.write(\'\\n        </div>\\n      \', escape=False)\n    pass\nresponse.write(\'\\n\\n      <div class="\', escape=False)\nresponse.write(middle_column)\nresponse.write(\'">\\n        \', escape=False)\nresponse.write(\'\\n        \', escape=False)\nresponse.write(\'\\n\\n<style>\\n.star{\\n\\twidth:50px;\\n\\theight:50px;\\n}\\n\\n</style>\\n<div class="row">\\n<div class="col-sm-2">\\n\\t\', escape=False)\nif str(questins[0].id) not in auth.user.starred:\n    response.write(\'\\n\\t\\t<img class="star" src="/quora/static/images/off.jpeg" id="star" onclick="changeImage();star1(\', escape=False)\n    response.write(questins[0].id)\n    response.write(\');" alt="click to star">\\n\\t\', escape=False)\nelse:\n    response.write(\'\\n\\t\\t<img class="star" src="/quora/static/images/on.svg" id="star" onclick="star1(\', escape=False)\n    response.write(questins[0].id)\n    response.write(\');changeImage();" alt="click to unstar">\\n\\t\', escape=False)\n    pass\nresponse.write(\'\\n\\t<br>\\n\\t\', escape=False)\nif questions[0].judged==False:\n    response.write(\'\\n\\t<div>Not Judged</div>\\n\\t\', escape=False)\nelif questions[0].sensible==False:\n    response.write(\'\\n\\t<div>Insensible</div>\\n\\t\', escape=False)\nelse:\n    response.write(\'\\n\\t<div>Sensible</div>\\n</div>\\n<div class="col-sm-10">\\n<h1>Question Details</h1>\\n\\t<h2>Question:</h2>\\n\\t\', escape=False)\n    response.write(questins[0].question)\n    response.write(\'\\t\\n\\t\', escape=False)\n    if questins[0].anonymous==False:\n        response.write(\'\\n\\t\\t<h4>Asked By:\', escape=False)\n        response.write(A(questins[0].author_name, _href=URL(\'profile\',args=questins[0].created_by)))\n        response.write(\'</h4>\\n\\t\', escape=False)\n    else:\n        response.write(\'\\n\\t\\t<h4>Asked By: Anonymous</h4>\\n\\t\', escape=False)\n        pass\n    response.write(\'\\n\\t<h2>Description:</h2>\\n\\t\', escape=False)\n    response.write(questins[0].description)\n    response.write(\'\\n<div>\\n\\tAnswers:\\n\\t<div class="container">\\n\\t\\t\', escape=False)\n    for answer in answers:\n        response.write(\'\\n\\t\\t\\t<div class="jumbotron">\\n\\t\\t\\t\\t\', escape=False)\n        user=db(db.auth_user.id==answer.created_by).select().first()\n        response.write(\'\\n\\t\\t\\t\\t<div>\', escape=False)\n        response.write(A(answer.author_name, _href=URL(\'profile\', args=answer.created_by)))\n        response.write(\'(\', escape=False)\n        response.write(user.category)\n        response.write(\'):</div>\\n\\t\\t\\t\\t<div>\', escape=False)\n        response.write(answer.answer)\n        response.write(\'</div>\\n\\t\\t\\t\\t<div>\', escape=False)\n        response.write(prettydate(answer.created_on))\n        response.write(\'</div>\\n\\t\\t\\t\\t<div class="inblock" id="like\', escape=False)\n        response.write(answer.id)\n        response.write(\'">\', escape=False)\n        response.write(len(answer.upvote))\n        response.write(\'</div>\\n\\t\\t\\t\\t\', escape=False)\n        if str(auth.user.id) not in answer.upvote:\n            response.write(\'\\n\\t\\t\\t\\t\\t<div class="inblock">\\n\\t\\t\\t\\t\\t\\t<span id="\', escape=False)\n            response.write(answer.id)\n            response.write(\'" class="glyphicon glyphicon-thumbs-up" onclick="tolike(id);func1(id);"></span>\\n\\t\\t\\t\\t\\t</div>\\n\\t\\t\\t\\t\', escape=False)\n        else:\n            response.write(\'\\n\\t\\t\\t\\t\\t<div class="inblock">\\n\\t\\t\\t\\t\\t\\t<span id="\', escape=False)\n            response.write(answer.id)\n            response.write(\'" class="glyphicon glyphicon-thumbs-down" onclick="tolike(id);func2(id);"></span>\\n\\t\\t\\t\\t\\t</div>\\t\\n\\t\\t\\t\\t\', escape=False)\n            pass\n        response.write(\'\\n\\t\\t\\t</div>\\n\\t\\t\', escape=False)\n        pass\n    response.write(\'\\n\\t\\t\', escape=False)\n    response.write(form)\n    response.write(\'\\n\\t</div>\\n</div>\\n</div>\\n</div>\\n<script>\\nfunction star1(qid){\\n\\tjQuery.ajax({method:\\\'post\\\',url:"\', escape=False)\n    response.write(URL(\'star\'))\n    response.write(\'",\\n\\tdata:{\\\'qid\\\':qid}\\n\\t});\\t\\t\\n}\\n\\nfunction changeImage() {\\n\\tvar image = document.getElementById(\\\'star\\\');\\n\\tif (image.src.match("/quora/static/images/off.jpeg")) {\\n\\t\\timage.src = "/quora/static/images/on.svg";\\n\\t\\timage.alt = "click to star"\\n\\t} else {\\n\\t\\timage.src = "/quora/static/images/off.jpeg";\\n\\t\\timage.alt = "click to unstar"\\n\\t}\\n}\\n\\nfunction tolike(answerid){\\n\\tvar str="#like";\\n\\tstr=str+answerid\\n\\tjQuery.ajax({method:\\\'post\\\',url:"\', escape=False)\n    response.write(URL(\'like\'))\n    response.write(\'",\\n\\t\\tdata:{\\\'answerid\\\':answerid},\\n\\t\\tsuccess:function(result){\\n\\t\\t\\t$(str).html(result);\\n\\t\\t}\\n\\t\\t});\\n}\\nfunction func1(id)\\n{\\n\\tif ( document.getElementById(id).className.match(/(?:^|\\\\s)glyphicon-thumbs-up(?!\\\\S)/) )\\n\\t\\tdocument.getElementById(id).className="glyphicon glyphicon-thumbs-down";\\n\\telse\\n\\t\\tdocument.getElementById(id).className="glyphicon glyphicon-thumbs-up";\\n}\\nfunction func2(id)\\n{\\n\\tif ( document.getElementById(id).className.match(/(?:^|\\\\s)glyphicon-thumbs-up(?!\\\\S)/) )\\n\\t\\tdocument.getElementById(id).className="glyphicon glyphicon-thumbs-down";\\n\\telse\\n\\t\\tdocument.getElementById(id).className="glyphicon glyphicon-thumbs-up";\\n}\\n</script>\\n\\n\', escape=False)\n    response.write(\'\\n        \', escape=False)\n    response.write(\'\\n      </div>\\n\\n      \', escape=False)\n    if right_sidebar_enabled:\n        response.write(\'\\n        <div class="col-md-3">\\n            \', escape=False)\n        response.write(\'\\n            <h3>Right Sidebar</h3>\\n            <p></p>\\n            \', escape=False)\n        response.write(\'\\n        </div>\\n      \', escape=False)\n        pass\n    response.write(\'\\n\\n    </div>\\n\\n    \', escape=False)\n    response.write(\' <!-- this is default footer -->      \\n    <footer class="footer">\\n      <div class="container-fluid">\\n       \\t<div class="text-center">\', escape=False)\n    response.write(T(\'Copyright\'))\n    response.write(\' &#169; IIIT-H</div>\\n      </div>\\n    </footer>\\n    \', escape=False)\n    response.write(\'\\n    <!-- The javascript =============================== -->\\n    <script src="\', escape=False)\n    response.write(URL(\'static\',\'js/bootstrap.min.js\'))\n    response.write(\'"></script>\\n    <script src="\', escape=False)\n    response.write(URL(\'static\',\'js/web2py-bootstrap3.js\'))\n    response.write(\'"></script>\\n    \', escape=False)\n    response.write(\'\\n    \', escape=False)\n    if response.google_analytics_id:\n        response.write(\'\\n    <!-- Analytics ==================================== -->\\n    <script src="\', escape=False)\n        response.write(URL(\'static\',\'js/analytics.min.js\'))\n        response.write(\'"></script>\\n    <script type="text/javascript">\\n      analytics.initialize({\\n      \\\'Google Analytics\\\':{trackingId:\\\'\', escape=False)\n        response.write(response.google_analytics_id)\n        response.write("\'}\\n      });\\n    </script>\\n    ", escape=False)\n        pass\n    response.write(\'\\n    <!-- Share ============================y============ -->\\n    <script src="\', escape=False)\n    response.write(URL(\'static\',\'js/share.js\',vars=dict(static=URL(\'static\',\'images\'))))\n    response.write(\'"></script>\\n  </body>\\n</html>\\n\', escape=False)'
p7
sS'snapshot'
p8
(dp9
sS'traceback'
p10
S'None\n'
p11
s.