(dp1
S'output'
p2
S"<type 'exceptions.AttributeError'> 'DAL' object has no attribute 'question'"
p3
sS'layer'
p4
S'/home/pranav/sem2/ITWS2/web2py/applications/quora/controllers/default.py'
p5
sS'code'
p6
S'# -*- coding: utf-8 -*-\n# this file is released under public domain and you can use without limitations\n\n#########################################################################\n## This is a sample controller\n## - index is the default action of any application\n## - user is required for authentication and authorization\n## - download is for downloading files uploaded in the db (does streaming)\n#########################################################################\n\n@auth.requires_login()\ndef alllist():\n\tif len(request.args): page=int(request.args[0])\n\telse: page=0\n\titems_per_page=10\n\tlimitby=(page*items_per_page,(page+1)*items_per_page+1)\n\ttopics=db().select(db.tags.ALL, limitby=limitby)\n\treturn dict(page=page, items_per_page=items_per_page,user=user,topics=topics)\n\n@auth.requires_login()\ndef mylist():\n\talltags=db().select(db.tags.ALL)\n\treturn dict(alltags=alltags)\n\ndef subscribe():\n\tvars=request.post_vars\n\ttag=str(vars.tagid)\n\tsubscriptions=auth.user.subscribed\n\tif tag not in subscriptions:\n\t\tsubscriptions.insert(0,tag)\n\telse:\n\t\tsubscriptions.remove(tag)\n\trow=db(db.auth_user.id==auth.user.id).select().first()\n\trow.update_record(subscribed=subscriptions)\n\n\t\ndef like():\n\tnewbie="Newbie"\n\tunderdog="Underdog"\n\trisingstar="risingstar"\n\tallrounder="Allrounder"\n\tmaster="Master"\n\tsensei="Sensei"\n\tvars=request.post_vars\n\tanswerid=vars.answerid\n\trow=db(db.answer.id==int(answerid)).select().first()\n\trow1=db(db.auth_user.id==row.created_by).select().first()\n\ttotallikes=int(row1.totalupvotes)\n\tliked=row.upvote\n\tuserid=str(auth.user.id)\n\tif userid not in liked:\n\t\ttotallikes=totallikes+1\n\t\tliked.insert(0,userid)\n\telse:\n\t\ttotallikes=totallikes-1\n\t\tliked.remove(userid)\n\trow1.update_record(totalupvotes=totallikes)\n\trow.update_record(upvote=liked)\n\tif totallikes < 2:\n\t \trow1.update_record(category=newbie)\n\telif totallikes > 2 and totallikes <= 50:\n\t\trow1.update_record(category=underdog)\n\telif totallikes > 50 and totallikes <=100:\n\t \trow1.update_record(category=risingstar)\n\telif totallikes > 100 and totallikes <=500:\n\t \trow1.update_record(category=allrounder)\n\telif totallikes > 500 and totallikes <=100:\n\t \trow1.update_record(category=master)\n\telif totallikes > 1000:\n\t \trow1.update_record(category=sensei)\n\treturn len(liked)\n\ndef starred():\n\tquestions=db().select(db.questions.ALL)\n\treturn dict(questions=questions)\n\ndef yourquestions():\n\tquestions=db(db.question.created_by==auth.user.id).select(db.questions.ALL)\n\treturn dict(questions=questions)\n\ndef questions():\n\ttagname=request.args(0) or redirect(URL(\'mylist\'))\n\tpage=request.args(1,cast=int,default=0)\n\titems_per_page=2\n\tlimitby=(page*items_per_page,(page+1)*items_per_page+1)\n\ttagname=str(tagname)\n\tquestion=db().select(db.questions.ALL,limitby=limitby ,orderby=~db.questions.modified_on)\n\treturn dict(tagname=tagname, page=page, items_per_page=items_per_page,user=user,question=question)\n\n@auth.requires_login()\ndef answer():\n\tquestionid=request.args(0, cast=int) or redirect(URL(\'mylist\'))\n\tform=SQLFORM(db.answer)\n\tquestion=db(db.questions.id==questionid).select(db.questions.ALL)\n\tanswers=db(db.answer.question_id==questionid).select(db.answer.ALL)\n\tif form.process().accepted:\n\t\tcur=form.vars.id\n\t\trow=db(db.answer.id==cur).select().first()\n\t\trow.update_record(question_id=questionid)\n\t\trow.update_record(author_name=auth.user.username)\n\t\tredirect(URL(\'answer\', args=questionid))\n\treturn dict(question=question, form=form, answers=answers, questionid=questionid)\n\ndef profile():\n\tuserid=request.args(0) or redirect(URL(\'mylist\'))\n\tuser=db(db.auth_user.id==userid).select().first()\n\tquestions=db(db.questions.created_by==userid).select(db.questions.ALL, orderby=~db.questions.created_on)\n\tquestionsforanswers=db().select(db.questions.ALL)\n\treturn dict(user=user,questions=questions,questionsforanswers=questionsforanswers)\n\ndef star():\n\tvars=request.post_vars\n\tqid=str(vars.qid)\n\tprint qid\n\tstars=auth.user.starred\n\tif qid not in stars:\n\t\tstars.insert(0,qid)\n\telse:\n\t\tstars.remove(qid)\n\tprint stars\n\trow=db(db.auth_user.id==auth.user.id).select().first()\n\trow.update_record(starred=stars)\n\t\ndef index():\n\tif len(request.args): page=int(request.args[0])\n\telse: page=0\n\titems_per_page=2\n\tlimitby=(page*items_per_page,(page+1)*items_per_page+1)\n\tquestion=db().select(db.questions.ALL,limitby=limitby,orderby=~db.questions.modified_on)\n\treturn dict(page=page, items_per_page=items_per_page,user=user,question=question)\n\t\ndef ask():\n\tform=SQLFORM(db.questions)\n\tif form.process().accepted:\n\t\tcur=form.vars.id\n\t\trow=db(db.questions.id==cur).select().first()\n\t\trow.update_record(author_name=auth.user.username)\n\t\tresponse.flash = \'form accepted\'\n\telif form.errors:\n\t\tresponse.flash = \'form has errors\'\n\telse:\n\t\tresponse.flash = \'fill form\'\n\treturn dict(form=form)\n\ndef user():\n    """\n    exposes:\n    http://..../[app]/default/user/login\n    http://..../[app]/default/user/logout\n    http://..../[app]/default/user/register\n    http://..../[app]/default/user/profile\n    http://..../[app]/default/user/retrieve_password\n    http://..../[app]/default/user/change_password\n    http://..../[app]/default/user/bulk_register\n    use @auth.requires_login()\n        @auth.requires_membership(\'group name\')\n        @auth.requires_permission(\'read\',\'table name\',record_id)\n    to decorate functions that need access control\n    also notice there is http://..../[app]/appadmin/manage/auth to allow administrator to manage users\n    """\n    return dict(form=auth())\n\n\n@cache.action()\ndef download():\n    """\n    allows downloading of uploaded files\n    http://..../[app]/default/download/[filename]\n    """\n    return response.download(request, db)\n\n\ndef call():\n    """\n    exposes services. for example:\n    http://..../[app]/default/call/jsonrpc\n    decorate with @services.jsonrpc the functions to expose\n    supports xml, json, xmlrpc, jsonrpc, amfrpc, rss, csv\n    """\n    return service()\n\n\n\nresponse._vars=response._caller(yourquestions)\n'
p7
sS'snapshot'
p8
(dp9
sS'traceback'
p10
S'Traceback (most recent call last):\n  File "/home/pranav/sem2/ITWS2/web2py/gluon/restricted.py", line 227, in restricted\n    exec ccode in environment\n  File "/home/pranav/sem2/ITWS2/web2py/applications/quora/controllers/default.py", line 184, in <module>\n  File "/home/pranav/sem2/ITWS2/web2py/gluon/globals.py", line 412, in <lambda>\n    self._caller = lambda f: f()\n  File "/home/pranav/sem2/ITWS2/web2py/applications/quora/controllers/default.py", line 78, in yourquestions\n    questions=db(db.question.created_by==auth.user.id).select(db.questions.ALL)\n  File "/home/pranav/sem2/ITWS2/web2py/gluon/packages/dal/pydal/base.py", line 921, in __getattr__\n    return BasicStorage.__getattribute__(self, key)\nAttributeError: \'DAL\' object has no attribute \'question\'\n'
p11
s.