(dp1
S'output'
p2
S"<type 'exceptions.AttributeError'> "
p3
sS'layer'
p4
S'/home/pranav/sem2/ITWS2/web2py/applications/quora/views/default/index.html'
p5
sS'code'
p6
S'response.write(\'<!DOCTYPE html>\\n<!--[if (gt IE 9)|!(IE)]><!--> <html class="no-js" lang="\', escape=False)\nresponse.write(T.accepted_language or \'en\')\nresponse.write(\'"> <!--<![endif]-->\\n  <head>\\n    <meta charset="utf-8">\\n    <!-- www.phpied.com/conditional-comments-block-downloads/ -->\\n    <!-- Always force latest IE rendering engine\\n         (even in intranet) & Chrome Frame\\n         Remove this if you use the .htaccess -->\\n    <meta http-equiv="X-UA-Compatible" content="IE=edge\', escape=False)\nresponse.write(not request.is_local and \',chrome=1\' or \'\')\nresponse.write(\'">\\n    <!--  Mobile Viewport Fix\\n          j.mp/mobileviewport & davidbcalhoun.com/2010/viewport-metatag\\n          device-width: Occupy full width of the screen in its current orientation\\n          initial-scale = 1.0 retains dimensions instead of zooming out if page height > device height\\n          user-scalable = yes allows the user to zoom in -->\\n    <meta name="viewport" content="width=device-width, initial-scale=1.0">\\n    <title>\', escape=False)\nresponse.write(response.title or request.application)\nresponse.write(\'</title>\\n    <!-- http://dev.w3.org/html5/markup/meta.name.html -->\\n    <meta name="application-name" content="\', escape=False)\nresponse.write(request.application)\nresponse.write(\'">\\n    <!-- Speaking of Google, don\\\'t forget to set your site up:\\n         http://google.com/webmasters -->\\n    <meta name="google-site-verification" content="">\\n    <!-- include stylesheets -->\\n    <link rel="stylesheet" href="\', escape=False)\nresponse.write(URL(\'static\',\'css/bootstrap.min.css\'))\nresponse.write(\'"/>\\n    <link rel="stylesheet" href="\', escape=False)\nresponse.write(URL(\'static\',\'css/web2py-bootstrap3.css\'))\nresponse.write(\'"/>\\n    <link rel="shortcut icon" href="\', escape=False)\nresponse.write(URL(\'static\',\'images/favicon.ico\'))\nresponse.write(\'" type="image/x-icon">\\n    <link rel="apple-touch-icon" href="\', escape=False)\nresponse.write(URL(\'static\',\'images/favicon.png\'))\nresponse.write(\'">\\n    <!-- All JavaScript at the bottom, except for Modernizr which enables\\n         HTML5 elements & feature detects -->\\n    <script src="\', escape=False)\nresponse.write(URL(\'static\',\'js/modernizr-2.8.3.min.js\'))\nresponse.write(\'"></script>\\n    <!--[if lt IE 9]>\\n        <script src="\', escape=False)\nresponse.write(URL(\'static\',\'js/respond-1.4.2.min.js\'))\nresponse.write(\'"></script>\\n        <![endif]-->\\n    <!-- Favicons -->\\n    \', escape=False)\nresponse.write(\'<script type="text/javascript"><!--\\n    // These variables are used by the web2py_ajax_init function in web2py_ajax.js (which is loaded below).\\n    var w2p_ajax_confirm_message = "\', escape=False)\nresponse.write(T(\'Are you sure you want to delete this object?\'))\nresponse.write(\'";\\n    var w2p_ajax_disable_with_message = "\', escape=False)\nresponse.write(T(\'Working...\'))\nresponse.write(\'";\\n    var w2p_ajax_date_format = "\', escape=False)\nresponse.write(T(\'%Y-%m-%d\'))\nresponse.write(\'";\\n    var w2p_ajax_datetime_format = "\', escape=False)\nresponse.write(T(\'%Y-%m-%d %H:%M:%S\'))\nresponse.write(\'";\\n    var ajax_error_500 = \\\'\', escape=False)\nresponse.write(T.M(\'An error occured, please [[reload %s]] the page\') % URL(args=request.args, vars=request.get_vars))\nresponse.write("\'\\n    //--></script>\\n", escape=False)\nresponse.files.insert(0,URL(\'static\',\'js/jquery.js\'))\nresponse.files.insert(1,URL(\'static\',\'css/calendar.css\'))\nresponse.files.insert(2,URL(\'static\',\'js/calendar.js\'))\nresponse.files.insert(3,URL(\'static\',\'js/web2py.js\'))\nresponse.include_meta()\nresponse.include_files()\nresponse.write(\'\\n\', escape=False)\nresponse.write(\' <!-- this includes jquery.js, calendar.js/.css and web2py.js -->\\n    \', escape=False)\nresponse.write(\'\\n    \', escape=False)\n# using sidebars need to know what sidebar you want to use\nmc0 = \'col-md-12\'\nmc1 = \'col-md-9\'\nmc2 = \'col-md-6\'\nleft_sidebar_enabled = globals().get(\'left_sidebar_enabled\', False)\nright_sidebar_enabled = globals().get(\'right_sidebar_enabled\', False)\nmiddle_column = {0: mc0, 1: mc1, 2: mc2}[\n(left_sidebar_enabled and 1 or 0)+(right_sidebar_enabled and 1 or 0)]\nresponse.write(\'\\n  </head>\\n  <body>\\n    <!--[if lt IE 8]><p class="browserupgrade">You are using an <strong>outdated</strong> browser. Please <a href="http://browsehappy.com/">upgrade your browser</a> to improve your experience.</p><![endif]-->\\n    <div class="w2p_flash alert alert-dismissable">\', escape=False)\nresponse.write(response.flash or \'\')\nresponse.write(\'</div>\\n    <!-- Navbar ======================================= -->\\n    <nav class="navbar navbar-default navbar-fixed-top navbarpranav" role="navigation">\\n      <div class="container-fluid">\\n        <div class="navbar-header">\\n          <button type="button" class="navbar-toggle" data-toggle="collapse" data-target=".navbar-collapse">\\n            <span class="sr-only">Toggle navigation</span>\\n            <span class="icon-bar"></span>\\n            <span class="icon-bar"></span>\\n            <span class="icon-bar"></span>\\n          </button>\\n          \', escape=False)\nresponse.write(response.logo or \'\')\nresponse.write(\'\\n        </div>\\n        <div class="collapse navbar-collapse navbar-ex1-collapse">\\n          <ul class="nav navbar-nav navbar-right">\\n            \', escape=False)\nresponse.write(\'auth\' in globals() and auth.navbar(\'Welcome\',mode=\'dropdown\') or \'\')\nresponse.write(\'\\n          </ul>\\n          \', escape=False)\nif response.menu:\n    response.write(\'\\n          \', escape=False)\n    response.write(MENU(response.menu, _class=\'nav navbar-nav\',li_class=\'dropdown\',ul_class=\'dropdown-menu\'))\n    response.write(\'\\n          \', escape=False)\n    pass\nresponse.write(\'\\n        </div>\\n      </div>\\n    </nav>\\n    <!-- Masthead ===================================== -->    \\n    \', escape=False)\nresponse.write(\'\\n    \', escape=False)\nresponse.write(\'\\n    <!-- Main ========================================= -->\\n    <!-- Begin page content -->\\n    <div class="container-fluid main-container">\\n      \', escape=False)\nif left_sidebar_enabled:\n    response.write(\'\\n        <div class="col-md-3 left-sidebar">\\n            \', escape=False)\n    response.write(\'\\n            <h3>Left Sidebar</h3>\\n            <p></p>\\n            \', escape=False)\n    response.write(\'\\n        </div>\\n      \', escape=False)\n    pass\nresponse.write(\'\\n\\n      <div class="\', escape=False)\nresponse.write(middle_column)\nresponse.write(\'">\\n        \', escape=False)\nresponse.write(\'\\n        \', escape=False)\nresponse.write(\'\\n<style>\\ncomment-avatar {\\n\\twidth: 65px;\\n\\theight: 65px;\\n\\tposition: relative;\\n\\tz-index: 99;\\n\\tfloat: left;\\n\\tborder: 3px solid #FFF;\\n\\t-webkit-border-radius: 4px;\\n\\t-moz-border-radius: 4px;\\n\\tborder-radius: 4px;\\n\\t-webkit-box-shadow: 0 1px 2px rgba(0,0,0,0.2);\\n\\t-moz-box-shadow: 0 1px 2px rgba(0,0,0,0.2);\\n\\tbox-shadow: 0 1px 2px rgba(0,0,0,0.2);\\n\\toverflow: hidden;\\n}\\n.comment-avatar img {\\n\\twidth: 100%;\\n\\theight: 100%;\\n}\\n.inline{\\n\\tdisplay:inline-block;\\n}\\n\\n.inline1{\\n\\tdisplay:inline-block;\\n}\\n</style>\\n<div class="container row" style="padding-top:15px;">\\n<div class="col-sm-3">\\n<h1> My Topics </h1>\\n<div style="padding-left:30px;">\\n\', escape=False)\nfor tags in alltags:\n    response.write(\'\\n\\t\', escape=False)\n    if str(tags.id) in auth.user.subscribed:\n        response.write(\'\\n\\t\\t<div style="font-size:1.5em;">\', escape=False)\n        response.write(LI(A(tags.tag_name,_href=URL(\'questions\',args=tags.tag_name))))\n        response.write(\'</div>\\n\\t\', escape=False)\n        pass\n    response.write(\'\\n\', escape=False)\n    pass\nresponse.write(\'\\n</div>\\n</div>\\n<div class="col-sm-9">\\n<h1>Most Recent Questions For You</h1>\\n\', escape=False)\nfor questions in question:\n    response.write(\'\\n\\t<div class="jumbotron" style="padding-top:5px;">\\n\\t\\t\', escape=False)\n    answer=db(db.answer.question_id==questions.id).select(db.answer.ALL,orderby=~db.answer.created_on)\n    response.write(\'\\t\\n\\t\\t<h2 class="inline">\', escape=False)\n    response.write(A(questions.question, _href=URL(\'answer\', args=questions.id)))\n    response.write(\'</h2>\\n\\t\\t<div class="inline">&nbsp; &nbsp;\', escape=False)\n    response.write(prettydate(questions.created_on))\n    response.write(\'</div>\\n\\t\\t\', escape=False)\n    if questions.anonymous==False:\n        response.write(\'\\n\\t\\t\\t<div>Asked By:&nbsp;&nbsp;\', escape=False)\n        response.write(A(questions.author_name, _href=URL(\'profile\', args=questions.created_by)))\n        response.write(\'</div>\\n\\t\\t\', escape=False)\n    else:\n        response.write(\'\\n\\t\\t\\t<div>Asked By: Anonymous</div>\\n\\t\\t\', escape=False)\n        pass\n    response.write(\'\\n\\t\\t<br>\\n\\t\\t\', escape=False)\n    if len(answer)>0:\n        response.write(\'\\n\\t\\t\', escape=False)\n        user=db(db.auth_user.id==answer[0].created_by).select().first()\n        response.write(\'\\n\\t\\t<div>Latest Answer By \', escape=False)\n        response.write(A(answer[0].author_name, _href=URL(\'profile\', args=answer[0].created_by)))\n        response.write(\' about \', escape=False)\n        response.write(prettydate(answer[0].created_on))\n        response.write(\'\\t: \', escape=False)\n        response.write(user.firstname)\n        response.write(\'</div>\\n\\t\\t<div class="inline1">\\n\\t\\t<img class="comment-avatar" src="\', escape=False)\n        response.write(URL(\'download\', args=user.profile_picture))\n        response.write(\'" /></div>\\n\\t\\t<div class="inline1">\', escape=False)\n        response.write(answer[0].answer)\n        response.write(\'</div>\\n\\t\\t\', escape=False)\n    else:\n        response.write(\'\\n\\t\\t<div>No Answers Yet</div>\\n\\t\\t\', escape=False)\n        pass\n    response.write(\'\\n\\t</div>\\n\', escape=False)\n    pass\nresponse.write(\'\\n</div>\\n</div>\\n\', escape=False)\nresponse.write(\'\\n        \', escape=False)\nresponse.write(\'\\n      </div>\\n\\n      \', escape=False)\nif right_sidebar_enabled:\n    response.write(\'\\n        <div class="col-md-3">\\n            \', escape=False)\n    response.write(\'\\n            <h3>Right Sidebar</h3>\\n            <p></p>\\n            \', escape=False)\n    response.write(\'\\n        </div>\\n      \', escape=False)\n    pass\nresponse.write(\'\\n\\n    </div>\\n\\n    \', escape=False)\nresponse.write(\' <!-- this is default footer -->      \\n    <footer class="footer">\\n      <div class="container-fluid">\\n       \\t<div class="text-center">\', escape=False)\nresponse.write(T(\'Copyright\'))\nresponse.write(\' &#169; IIIT-H</div>\\n      </div>\\n    </footer>\\n    \', escape=False)\nresponse.write(\'\\n    <!-- The javascript =============================== -->\\n    <script src="\', escape=False)\nresponse.write(URL(\'static\',\'js/bootstrap.min.js\'))\nresponse.write(\'"></script>\\n    <script src="\', escape=False)\nresponse.write(URL(\'static\',\'js/web2py-bootstrap3.js\'))\nresponse.write(\'"></script>\\n    \', escape=False)\nresponse.write(\'\\n    \', escape=False)\nif response.google_analytics_id:\n    response.write(\'\\n    <!-- Analytics ==================================== -->\\n    <script src="\', escape=False)\n    response.write(URL(\'static\',\'js/analytics.min.js\'))\n    response.write(\'"></script>\\n    <script type="text/javascript">\\n      analytics.initialize({\\n      \\\'Google Analytics\\\':{trackingId:\\\'\', escape=False)\n    response.write(response.google_analytics_id)\n    response.write("\'}\\n      });\\n    </script>\\n    ", escape=False)\n    pass\nresponse.write(\'\\n    <!-- Share ============================y============ -->\\n    <script src="\', escape=False)\nresponse.write(URL(\'static\',\'js/share.js\',vars=dict(static=URL(\'static\',\'images\'))))\nresponse.write(\'"></script>\\n  </body>\\n</html>\\n\', escape=False)'
p7
sS'snapshot'
p8
(dp9
sS'traceback'
p10
S'Traceback (most recent call last):\n  File "/home/pranav/sem2/ITWS2/web2py/gluon/restricted.py", line 227, in restricted\n    exec ccode in environment\n  File "/home/pranav/sem2/ITWS2/web2py/applications/quora/views/default/index.html", line 109, in <module>\n  File "/home/pranav/sem2/ITWS2/web2py/gluon/packages/dal/pydal/objects.py", line 90, in __getattr__\n    raise AttributeError\nAttributeError\n'
p11
s.